target datalayout = "e-m:e-p270:32:32-p271:32:32-p272:64:64-i64:64-i128:128-f80:128-n8:16:32:64-S128"
target triple = "x86_64-pc-linux-gnu"

%struct.bufferevent_ssl = type { %struct.bufferevent_private, ptr, ptr, ptr, ptr, %struct.bio_data_counts, i64, [3 x i32], i8, i64 }
%struct.bufferevent_private = type { %struct.bufferevent, ptr, i8, i16, i16, i16, i32, i32, %struct.event_callback, i32, i32, ptr, i64, i64, ptr, %union.anon.7, ptr }
%struct.bufferevent = type { ptr, ptr, %struct.event, %struct.event, ptr, ptr, %struct.event_watermark, %struct.event_watermark, ptr, ptr, ptr, ptr, %struct.timeval, %struct.timeval, i16 }
%struct.event = type { %struct.event_callback, %union.anon.0, i32, i16, i16, ptr, %union.anon.2, %struct.timeval }
%union.anon.0 = type { %struct.anon.1 }
%struct.anon.1 = type { ptr, ptr }
%union.anon.2 = type { %struct.anon.3 }
%struct.anon.3 = type { %struct.anon.4, %struct.timeval }
%struct.anon.4 = type { ptr, ptr }
%struct.event_watermark = type { i64, i64 }
%struct.timeval = type { i64, i64 }
%struct.event_callback = type { %struct.anon, i16, i8, i8, %union.anon, ptr }
%struct.anon = type { ptr, ptr }
%union.anon = type { ptr }
%union.anon.7 = type { %struct.sockaddr_in6 }
%struct.sockaddr_in6 = type { i16, i16, i32, %struct.in6_addr, i32 }
%struct.in6_addr = type { %union.anon.8 }
%union.anon.8 = type { [4 x i32] }
%struct.bio_data_counts = type { i64, i64 }
%struct.mbedtls_context = type { ptr, %struct.mbedtls_net_context }
%struct.mbedtls_net_context = type { i32 }
%struct.mbedtls_ssl_context = type { ptr, i32, i32, i32, i32, i32, i32, ptr, ptr, ptr, ptr, ptr, ptr, ptr, ptr, ptr, ptr, ptr, ptr, ptr, ptr, ptr, ptr, ptr, ptr, ptr, ptr, ptr, ptr, ptr, ptr, ptr, i32, i64, i64, i16, i64, i64, i64, i64, i32, i32, i8, ptr, ptr, ptr, ptr, ptr, ptr, i32, i64, i64, [8 x i8], i16, i8, i32, ptr, ptr, %struct.mbedtls_dtls_srtp_info_t, ptr, i64, i32, i64, [12 x i8], [12 x i8] }
%struct.mbedtls_dtls_srtp_info_t = type { i16, i16, [255 x i8] }

; Function Attrs: nounwind uwtable
define internal i32 @be_mbedtls_bio_set_fd(ptr noundef %0, i32 noundef %1) #0 {
  %3 = alloca ptr, align 8
  %4 = alloca i32, align 4
  %5 = alloca ptr, align 8
  store ptr %0, ptr %3, align 8
  store i32 %1, ptr %4, align 4
  call void @llvm.lifetime.start.p0(i64 8, ptr %5) #3
  %6 = load ptr, ptr %3, align 8
  %7 = getelementptr inbounds nuw %struct.bufferevent_ssl, ptr %6, i32 0, i32 2
  %8 = load ptr, ptr %7, align 8
  store ptr %8, ptr %5, align 8
  %9 = load ptr, ptr %3, align 8
  %10 = getelementptr inbounds nuw %struct.bufferevent_ssl, ptr %9, i32 0, i32 1
  %11 = load ptr, ptr %10, align 8
  %12 = icmp ne ptr %11, null
  br i1 %12, label %23, label %13

13:                                               ; preds = %2
  %14 = load i32, ptr %4, align 4
  %15 = load ptr, ptr %5, align 8
  %16 = getelementptr inbounds nuw %struct.mbedtls_context, ptr %15, i32 0, i32 1
  %17 = getelementptr inbounds nuw %struct.mbedtls_net_context, ptr %16, i32 0, i32 0
  store i32 %14, ptr %17, align 8
  %18 = load ptr, ptr %5, align 8
  %19 = getelementptr inbounds nuw %struct.mbedtls_context, ptr %18, i32 0, i32 0
  %20 = load ptr, ptr %19, align 8
  %21 = load ptr, ptr %5, align 8
  %22 = getelementptr inbounds nuw %struct.mbedtls_context, ptr %21, i32 0, i32 1
  call void @mbedtls_ssl_set_bio(ptr noundef %20, ptr noundef %22, ptr noundef @mbedtls_net_send, ptr noundef @mbedtls_net_recv, ptr noundef null)
  br label %30

23:                                               ; preds = %2
  %24 = load ptr, ptr %5, align 8
  %25 = getelementptr inbounds nuw %struct.mbedtls_context, ptr %24, i32 0, i32 0
  %26 = load ptr, ptr %25, align 8
  %27 = load ptr, ptr %3, align 8
  %28 = getelementptr inbounds nuw %struct.bufferevent_ssl, ptr %27, i32 0, i32 1
  %29 = load ptr, ptr %28, align 8
  call void @mbedtls_ssl_set_bio(ptr noundef %26, ptr noundef %29, ptr noundef @bio_bufferevent_write, ptr noundef @bio_bufferevent_read, ptr noundef null)
  br label %30

30:                                               ; preds = %23, %13
  call void @llvm.lifetime.end.p0(i64 8, ptr %5) #3
  ret i32 0
}

; Function Attrs: nounwind uwtable
define dso_local ptr @bufferevent_mbedtls_socket_new(ptr noundef %0, i32 noundef %1, ptr noundef %2, i32 noundef %3, i32 noundef %4) #0 {
  %6 = alloca ptr, align 8
  %7 = alloca ptr, align 8
  %8 = alloca i32, align 4
  %9 = alloca ptr, align 8
  %10 = alloca i32, align 4
  %11 = alloca i32, align 4
  %12 = alloca i64, align 8
  %13 = alloca ptr, align 8
  %14 = alloca i32, align 4
  store ptr %0, ptr %7, align 8
  store i32 %1, ptr %8, align 4
  store ptr %2, ptr %9, align 8
  store i32 %3, ptr %10, align 4
  store i32 %4, ptr %11, align 4
  call void @llvm.lifetime.start.p0(i64 8, ptr %12) #3
  store i64 -1, ptr %12, align 8
  call void @llvm.lifetime.start.p0(i64 8, ptr %13) #3
  %15 = load ptr, ptr %9, align 8
  %16 = getelementptr inbounds nuw %struct.mbedtls_ssl_context, ptr %15, i32 0, i32 12
  %17 = load ptr, ptr %16, align 8
  %18 = icmp ne ptr %17, null
  br i1 %18, label %19, label %55

19:                                               ; preds = %5
  %20 = load ptr, ptr %9, align 8
  %21 = getelementptr inbounds nuw %struct.mbedtls_ssl_context, ptr %20, i32 0, i32 9
  %22 = load ptr, ptr %21, align 8
  %23 = icmp eq ptr %22, @mbedtls_net_send
  br i1 %23, label %24, label %36

24:                                               ; preds = %19
  %25 = load ptr, ptr %9, align 8
  %26 = getelementptr inbounds nuw %struct.mbedtls_ssl_context, ptr %25, i32 0, i32 10
  %27 = load ptr, ptr %26, align 8
  %28 = icmp eq ptr %27, @mbedtls_net_recv
  br i1 %28, label %29, label %36

29:                                               ; preds = %24
  %30 = load ptr, ptr %9, align 8
  %31 = getelementptr inbounds nuw %struct.mbedtls_ssl_context, ptr %30, i32 0, i32 12
  %32 = load ptr, ptr %31, align 8
  %33 = getelementptr inbounds nuw %struct.mbedtls_net_context, ptr %32, i32 0, i32 0
  %34 = load i32, ptr %33, align 4
  %35 = sext i32 %34 to i64
  store i64 %35, ptr %12, align 8
  br label %54

36:                                               ; preds = %24, %19
  %37 = load ptr, ptr %9, align 8
  %38 = getelementptr inbounds nuw %struct.mbedtls_ssl_context, ptr %37, i32 0, i32 9
  %39 = load ptr, ptr %38, align 8
  %40 = icmp eq ptr %39, @bio_bufferevent_write
  br i1 %40, label %41, label %52

41:                                               ; preds = %36
  %42 = load ptr, ptr %9, align 8
  %43 = getelementptr inbounds nuw %struct.mbedtls_ssl_context, ptr %42, i32 0, i32 10
  %44 = load ptr, ptr %43, align 8
  %45 = icmp eq ptr %44, @bio_bufferevent_read
  br i1 %45, label %46, label %52

46:                                               ; preds = %41
  %47 = load ptr, ptr %9, align 8
  %48 = getelementptr inbounds nuw %struct.mbedtls_ssl_context, ptr %47, i32 0, i32 12
  %49 = load ptr, ptr %48, align 8
  %50 = call i32 @bufferevent_getfd(ptr noundef %49)
  %51 = sext i32 %50 to i64
  store i64 %51, ptr %12, align 8
  br label %53

52:                                               ; preds = %41, %36
  store i64 9223372036854775807, ptr %12, align 8
  br label %53

53:                                               ; preds = %52, %46
  br label %54

54:                                               ; preds = %53, %29
  br label %55

55:                                               ; preds = %54, %5
  %56 = load i64, ptr %12, align 8
  %57 = icmp sge i64 %56, 0
  br i1 %57, label %58, label %73

58:                                               ; preds = %55
  %59 = load i32, ptr %8, align 4
  %60 = icmp slt i32 %59, 0
  br i1 %60, label %61, label %64

61:                                               ; preds = %58
  %62 = load i64, ptr %12, align 8
  %63 = trunc i64 %62 to i32
  store i32 %63, ptr %8, align 4
  br label %72

64:                                               ; preds = %58
  %65 = load i64, ptr %12, align 8
  %66 = load i32, ptr %8, align 4
  %67 = sext i32 %66 to i64
  %68 = icmp eq i64 %65, %67
  br i1 %68, label %69, label %70

69:                                               ; preds = %64
  br label %71

70:                                               ; preds = %64
  br label %95

71:                                               ; preds = %69
  br label %72

72:                                               ; preds = %71, %61
  br label %79

73:                                               ; preds = %55
  %74 = load i32, ptr %8, align 4
  %75 = icmp sge i32 %74, 0
  br i1 %75, label %76, label %77

76:                                               ; preds = %73
  br label %78

77:                                               ; preds = %73
  br label %78

78:                                               ; preds = %77, %76
  br label %79

79:                                               ; preds = %78, %72
  %80 = load ptr, ptr %7, align 8
  %81 = load i32, ptr %8, align 4
  %82 = load ptr, ptr %9, align 8
  %83 = load i32, ptr %10, align 4
  %84 = load i32, ptr %11, align 4
  %85 = call ptr @bufferevent_ssl_new_impl(ptr noundef %80, ptr noundef null, i32 noundef %81, ptr noundef %82, i32 noundef %83, i32 noundef %84, ptr noundef @le_mbedtls_ops)
  store ptr %85, ptr %13, align 8
  %86 = load ptr, ptr %13, align 8
  %87 = icmp ne ptr %86, null
  br i1 %87, label %88, label %93

88:                                               ; preds = %79
  %89 = load ptr, ptr %13, align 8
  %90 = call ptr @bufferevent_ssl_upcast(ptr noundef %89)
  %91 = load i32, ptr %8, align 4
  %92 = call i32 @be_mbedtls_bio_set_fd(ptr noundef %90, i32 noundef %91)
  br label %93

93:                                               ; preds = %88, %79
  %94 = load ptr, ptr %13, align 8
  store ptr %94, ptr %6, align 8
  store i32 1, ptr %14, align 4
  br label %96

95:                                               ; preds = %70
  store ptr null, ptr %6, align 8
  store i32 1, ptr %14, align 4
  br label %96

96:                                               ; preds = %95, %93
  call void @llvm.lifetime.end.p0(i64 8, ptr %13) #3
  call void @llvm.lifetime.end.p0(i64 8, ptr %12) #3
  %97 = load ptr, ptr %6, align 8
  ret ptr %97
}