; Function Attrs: nounwind uwtable
define dso_local ptr @bufferevent_mbedtls_socket_new(ptr noundef %0, i32 noundef %1, ptr noundef %2, i32 noundef %3, i32 noundef %4) local_unnamed_addr #0 {
  %6 = getelementptr inbounds nuw i8, ptr %2, i64 72
  %7 = load ptr, ptr %6, align 8
  %.not = icmp eq ptr %7, null
  br i1 %.not, label %.thread30, label %8

8:                                                ; preds = %5
  %9 = getelementptr inbounds nuw i8, ptr %2, i64 48
  %10 = load ptr, ptr %9, align 8
  %11 = icmp eq ptr %10, @mbedtls_net_send
  br i1 %11, label %12, label %18

12:                                               ; preds = %8
  %13 = getelementptr inbounds nuw i8, ptr %2, i64 56
  %14 = load ptr, ptr %13, align 8
  %15 = icmp eq ptr %14, @mbedtls_net_recv
  br i1 %15, label %16, label %.thread27

16:                                               ; preds = %12
  %17 = load i32, ptr %7, align 4
  br label %26

18:                                               ; preds = %8
  %19 = icmp eq ptr %10, @bio_bufferevent_write
  br i1 %19, label %20, label %.thread27

20:                                               ; preds = %18
  %21 = getelementptr inbounds nuw i8, ptr %2, i64 56
  %22 = load ptr, ptr %21, align 8
  %23 = icmp eq ptr %22, @bio_bufferevent_read
  br i1 %23, label %24, label %.thread27

24:                                               ; preds = %20
  %25 = tail call i32 @bufferevent_getfd(ptr noundef nonnull %7) #5
  br label %26

26:                                               ; preds = %16, %24
  %.021.in = phi i32 [ %17, %16 ], [ %25, %24 ]
  %.021 = zext nneg i32 %.021.in to i64
  %27 = icmp sgt i32 %.021.in, -1
  br i1 %27, label %.thread27, label %.thread30

.thread27:                                        ; preds = %12, %18, %20, %26
  %.02129 = phi i64 [ %.021, %26 ], [ 9223372036854775807, %20 ], [ 9223372036854775807, %18 ], [ 9223372036854775807, %12 ]
  %28 = icmp slt i32 %1, 0
  br i1 %28, label %29, label %31

29:                                               ; preds = %.thread27
  %30 = trunc i64 %.02129 to i32
  br label %.thread30

31:                                               ; preds = %.thread27
  %32 = zext nneg i32 %1 to i64
  %33 = icmp eq i64 %.02129, %32
  br i1 %33, label %.thread30, label %be_mbedtls_bio_set_fd.exit

.thread30:                                        ; preds = %5, %26, %29, %31
  %.022 = phi i32 [ %30, %29 ], [ %1, %31 ], [ %1, %26 ], [ %1, %5 ]
  %34 = tail call ptr @bufferevent_ssl_new_impl(ptr noundef %0, ptr noundef null, i32 noundef %.022, ptr noundef nonnull %2, i32 noundef %3, i32 noundef %4, ptr noundef nonnull @le_mbedtls_ops) #5
  %.not26 = icmp eq ptr %34, null
  br i1 %.not26, label %be_mbedtls_bio_set_fd.exit, label %35

35:                                               ; preds = %.thread30
  %36 = tail call ptr @bufferevent_ssl_upcast(ptr noundef nonnull %34) #5
  %37 = getelementptr inbounds nuw i8, ptr %36, i64 528
  %38 = load ptr, ptr %37, align 8
  %39 = getelementptr inbounds nuw i8, ptr %36, i64 520
  %40 = load ptr, ptr %39, align 8
  %.not.i = icmp eq ptr %40, null
  br i1 %.not.i, label %41, label %44

41:                                               ; preds = %35
  %42 = getelementptr inbounds nuw i8, ptr %38, i64 8
  store i32 %.022, ptr %42, align 8
  %43 = load ptr, ptr %38, align 8
  tail call void @mbedtls_ssl_set_bio(ptr noundef %43, ptr noundef nonnull %42, ptr noundef nonnull @mbedtls_net_send, ptr noundef nonnull @mbedtls_net_recv, ptr noundef null) #5
  br label %be_mbedtls_bio_set_fd.exit

44:                                               ; preds = %35
  %45 = load ptr, ptr %38, align 8
  tail call void @mbedtls_ssl_set_bio(ptr noundef %45, ptr noundef nonnull %40, ptr noundef nonnull @bio_bufferevent_write, ptr noundef nonnull @bio_bufferevent_read, ptr noundef null) #5
  br label %be_mbedtls_bio_set_fd.exit

be_mbedtls_bio_set_fd.exit:                       ; preds = %44, %41, %31, %.thread30
  %.0 = phi ptr [ null, %.thread30 ], [ null, %31 ], [ %34, %41 ], [ %34, %44 ]
  ret ptr %.0
}